target datalayout = "e-m:e-p270:32:32-p271:32:32-p272:64:64-i64:64-i128:128-f80:128-n8:16:32:64-S128"
target triple = "x86_64-pc-linux-gnu"

%struct.AVBSFContext = type { ptr, ptr, ptr, ptr, ptr, %struct.AVRational, %struct.AVRational }
%struct.AVRational = type { i32, i32 }
%struct.BSFListContext = type { ptr, ptr, i32, i32, ptr }

; Function Attrs: nounwind uwtable
define internal i32 @bsf_list_init(ptr noundef %0) #0 {
  %2 = alloca ptr, align 8
  %3 = alloca ptr, align 8
  %4 = alloca i32, align 4
  %5 = alloca i32, align 4
  %6 = alloca ptr, align 8
  %7 = alloca %struct.AVRational, align 4
  store ptr %0, ptr %2, align 8, !tbaa !10
  call void @llvm.lifetime.start.p0(i64 8, ptr %3) #6
  %8 = load ptr, ptr %2, align 8, !tbaa !10
  %9 = getelementptr inbounds nuw %struct.AVBSFContext, ptr %8, i32 0, i32 2
  %10 = load ptr, ptr %9, align 8, !tbaa !14
  store ptr %10, ptr %3, align 8, !tbaa !81
  call void @llvm.lifetime.start.p0(i64 4, ptr %4) #6
  call void @llvm.lifetime.start.p0(i64 4, ptr %5) #6
  call void @llvm.lifetime.start.p0(i64 8, ptr %6) #6
  %11 = load ptr, ptr %2, align 8, !tbaa !10
  %12 = getelementptr inbounds nuw %struct.AVBSFContext, ptr %11, i32 0, i32 3
  %13 = load ptr, ptr %12, align 8, !tbaa !29
  store ptr %13, ptr %6, align 8, !tbaa !89
  call void @llvm.lifetime.start.p0(i64 8, ptr %7) #6
  %14 = load ptr, ptr %2, align 8, !tbaa !10
  %15 = getelementptr inbounds nuw %struct.AVBSFContext, ptr %14, i32 0, i32 5
  call void @llvm.memcpy.p0.p0.i64(ptr align 4 %7, ptr align 8 %15, i64 8, i1 false), !tbaa.struct !53
  store i32 0, ptr %5, align 4, !tbaa !31
  br label %16

16:                                               ; preds = %75, %1
  %17 = load i32, ptr %5, align 4, !tbaa !31
  %18 = load ptr, ptr %3, align 8, !tbaa !81
  %19 = getelementptr inbounds nuw %struct.BSFListContext, ptr %18, i32 0, i32 2
  %20 = load i32, ptr %19, align 8, !tbaa !85
  %21 = icmp slt i32 %17, %20
  br i1 %21, label %22, label %78

22:                                               ; preds = %16
  %23 = load ptr, ptr %3, align 8, !tbaa !81
  %24 = getelementptr inbounds nuw %struct.BSFListContext, ptr %23, i32 0, i32 1
  %25 = load ptr, ptr %24, align 8, !tbaa !83
  %26 = load i32, ptr %5, align 4, !tbaa !31
  %27 = sext i32 %26 to i64
  %28 = getelementptr inbounds ptr, ptr %25, i64 %27
  %29 = load ptr, ptr %28, align 8, !tbaa !10
  %30 = getelementptr inbounds nuw %struct.AVBSFContext, ptr %29, i32 0, i32 3
  %31 = load ptr, ptr %30, align 8, !tbaa !29
  %32 = load ptr, ptr %6, align 8, !tbaa !89
  %33 = call i32 @avcodec_parameters_copy(ptr noundef %31, ptr noundef %32)
  store i32 %33, ptr %4, align 4, !tbaa !31
  %34 = load i32, ptr %4, align 4, !tbaa !31
  %35 = icmp slt i32 %34, 0
  br i1 %35, label %36, label %37

36:                                               ; preds = %22
  br label %86

37:                                               ; preds = %22
  %38 = load ptr, ptr %3, align 8, !tbaa !81
  %39 = getelementptr inbounds nuw %struct.BSFListContext, ptr %38, i32 0, i32 1
  %40 = load ptr, ptr %39, align 8, !tbaa !83
  %41 = load i32, ptr %5, align 4, !tbaa !31
  %42 = sext i32 %41 to i64
  %43 = getelementptr inbounds ptr, ptr %40, i64 %42
  %44 = load ptr, ptr %43, align 8, !tbaa !10
  %45 = getelementptr inbounds nuw %struct.AVBSFContext, ptr %44, i32 0, i32 5
  call void @llvm.memcpy.p0.p0.i64(ptr align 8 %45, ptr align 4 %7, i64 8, i1 false), !tbaa.struct !53
  %46 = load ptr, ptr %3, align 8, !tbaa !81
  %47 = getelementptr inbounds nuw %struct.BSFListContext, ptr %46, i32 0, i32 1
  %48 = load ptr, ptr %47, align 8, !tbaa !83
  %49 = load i32, ptr %5, align 4, !tbaa !31
  %50 = sext i32 %49 to i64
  %51 = getelementptr inbounds ptr, ptr %48, i64 %50
  %52 = load ptr, ptr %51, align 8, !tbaa !10
  %53 = call i32 @av_bsf_init(ptr noundef %52)
  store i32 %53, ptr %4, align 4, !tbaa !31
  %54 = load i32, ptr %4, align 4, !tbaa !31
  %55 = icmp slt i32 %54, 0
  br i1 %55, label %56, label %57

56:                                               ; preds = %37
  br label %86

57:                                               ; preds = %37
  %58 = load ptr, ptr %3, align 8, !tbaa !81
  %59 = getelementptr inbounds nuw %struct.BSFListContext, ptr %58, i32 0, i32 1
  %60 = load ptr, ptr %59, align 8, !tbaa !83
  %61 = load i32, ptr %5, align 4, !tbaa !31
  %62 = sext i32 %61 to i64
  %63 = getelementptr inbounds ptr, ptr %60, i64 %62
  %64 = load ptr, ptr %63, align 8, !tbaa !10
  %65 = getelementptr inbounds nuw %struct.AVBSFContext, ptr %64, i32 0, i32 4
  %66 = load ptr, ptr %65, align 8, !tbaa !30
  store ptr %66, ptr %6, align 8, !tbaa !89
  %67 = load ptr, ptr %3, align 8, !tbaa !81
  %68 = getelementptr inbounds nuw %struct.BSFListContext, ptr %67, i32 0, i32 1
  %69 = load ptr, ptr %68, align 8, !tbaa !83
  %70 = load i32, ptr %5, align 4, !tbaa !31
  %71 = sext i32 %70 to i64
  %72 = getelementptr inbounds ptr, ptr %69, i64 %71
  %73 = load ptr, ptr %72, align 8, !tbaa !10
  %74 = getelementptr inbounds nuw %struct.AVBSFContext, ptr %73, i32 0, i32 6
  call void @llvm.memcpy.p0.p0.i64(ptr align 4 %7, ptr align 8 %74, i64 8, i1 false), !tbaa.struct !53
  br label %75

75:                                               ; preds = %57
  %76 = load i32, ptr %5, align 4, !tbaa !31
  %77 = add nsw i32 %76, 1
  store i32 %77, ptr %5, align 4, !tbaa !31
  br label %16, !llvm.loop !90

78:                                               ; preds = %16
  %79 = load ptr, ptr %2, align 8, !tbaa !10
  %80 = getelementptr inbounds nuw %struct.AVBSFContext, ptr %79, i32 0, i32 6
  call void @llvm.memcpy.p0.p0.i64(ptr align 8 %80, ptr align 4 %7, i64 8, i1 false), !tbaa.struct !53
  %81 = load ptr, ptr %2, align 8, !tbaa !10
  %82 = getelementptr inbounds nuw %struct.AVBSFContext, ptr %81, i32 0, i32 4
  %83 = load ptr, ptr %82, align 8, !tbaa !30
  %84 = load ptr, ptr %6, align 8, !tbaa !89
  %85 = call i32 @avcodec_parameters_copy(ptr noundef %83, ptr noundef %84)
  store i32 %85, ptr %4, align 4, !tbaa !31
  br label %86

86:                                               ; preds = %78, %56, %36
  %87 = load i32, ptr %4, align 4, !tbaa !31
  call void @llvm.lifetime.end.p0(i64 8, ptr %7) #6
  call void @llvm.lifetime.end.p0(i64 8, ptr %6) #6
  call void @llvm.lifetime.end.p0(i64 4, ptr %5) #6
  call void @llvm.lifetime.end.p0(i64 4, ptr %4) #6
  call void @llvm.lifetime.end.p0(i64 8, ptr %3) #6
  ret i32 %87
}