; Function Attrs: nounwind uwtable
define internal i32 @bsf_list_init(ptr noundef captures(none) %0) #0 {
  %2 = getelementptr inbounds nuw i8, ptr %0, i64 16
  %3 = load ptr, ptr %2, align 8, !tbaa !9
  %4 = getelementptr inbounds nuw i8, ptr %0, i64 24
  %5 = getelementptr inbounds nuw i8, ptr %0, i64 40
  %6 = getelementptr inbounds nuw i8, ptr %3, i64 16
  %.029 = load ptr, ptr %4, align 8, !tbaa !71
  %.sroa.0.030 = load i64, ptr %5, align 8
  %7 = load i32, ptr %6, align 8, !tbaa !64
  %8 = icmp sgt i32 %7, 0
  br i1 %8, label %.lr.ph, label %._crit_edge

.lr.ph:                                           ; preds = %1
  %9 = getelementptr inbounds nuw i8, ptr %3, i64 8
  %.pre = load ptr, ptr %9, align 8, !tbaa !62
  br label %10

10:                                               ; preds = %.lr.ph, %28
  %11 = phi ptr [ %.pre, %.lr.ph ], [ %29, %28 ]
  %indvars.iv = phi i64 [ 0, %.lr.ph ], [ %indvars.iv.next, %28 ]
  %.sroa.0.033 = phi i64 [ %.sroa.0.030, %.lr.ph ], [ %.sroa.0.0, %28 ]
  %.032 = phi ptr [ %.029, %.lr.ph ], [ %.0, %28 ]
  %12 = getelementptr inbounds nuw ptr, ptr %11, i64 %indvars.iv
  %13 = load ptr, ptr %12, align 8, !tbaa !4
  %14 = getelementptr inbounds nuw i8, ptr %13, i64 24
  %15 = load ptr, ptr %14, align 8, !tbaa !23
  %16 = tail call i32 @avcodec_parameters_copy(ptr noundef %15, ptr noundef %.032) #6
  %17 = icmp slt i32 %16, 0
  br i1 %17, label %.loopexit, label %18

18:                                               ; preds = %10
  %19 = load ptr, ptr %9, align 8, !tbaa !62
  %20 = getelementptr inbounds nuw ptr, ptr %19, i64 %indvars.iv
  %21 = load ptr, ptr %20, align 8, !tbaa !4
  %22 = getelementptr inbounds nuw i8, ptr %21, i64 40
  store i64 %.sroa.0.033, ptr %22, align 8
  %23 = load ptr, ptr %9, align 8, !tbaa !62
  %24 = getelementptr inbounds nuw ptr, ptr %23, i64 %indvars.iv
  %25 = load ptr, ptr %24, align 8, !tbaa !4
  %26 = tail call i32 @av_bsf_init(ptr noundef %25)
  %27 = icmp slt i32 %26, 0
  br i1 %27, label %.loopexit, label %28

28:                                               ; preds = %18
  %29 = load ptr, ptr %9, align 8, !tbaa !62
  %30 = getelementptr inbounds nuw ptr, ptr %29, i64 %indvars.iv
  %31 = load ptr, ptr %30, align 8, !tbaa !4
  %32 = getelementptr inbounds nuw i8, ptr %31, i64 32
  %33 = getelementptr inbounds nuw i8, ptr %31, i64 48
  %indvars.iv.next = add nuw nsw i64 %indvars.iv, 1
  %.0 = load ptr, ptr %32, align 8, !tbaa !71
  %.sroa.0.0 = load i64, ptr %33, align 8
  %34 = load i32, ptr %6, align 8, !tbaa !64
  %35 = sext i32 %34 to i64
  %36 = icmp slt i64 %indvars.iv.next, %35
  br i1 %36, label %10, label %._crit_edge, !llvm.loop !72

._crit_edge:                                      ; preds = %28, %1
  %.0.lcssa = phi ptr [ %.029, %1 ], [ %.0, %28 ]
  %.sroa.0.0.lcssa = phi i64 [ %.sroa.0.030, %1 ], [ %.sroa.0.0, %28 ]
  %37 = getelementptr inbounds nuw i8, ptr %0, i64 48
  store i64 %.sroa.0.0.lcssa, ptr %37, align 8
  %38 = getelementptr inbounds nuw i8, ptr %0, i64 32
  %39 = load ptr, ptr %38, align 8, !tbaa !24
  %40 = tail call i32 @avcodec_parameters_copy(ptr noundef %39, ptr noundef %.0.lcssa) #6
  br label %.loopexit

.loopexit:                                        ; preds = %18, %10, %._crit_edge
  %.023 = phi i32 [ %40, %._crit_edge ], [ %26, %18 ], [ %16, %10 ]
  ret i32 %.023
}